target datalayout = "e-m:e-p270:32:32-p271:32:32-p272:64:64-i64:64-i128:128-f80:128-n8:16:32:64-S128"
target triple = "x86_64-pc-linux-gnu"

%struct.ScratchBuf = type { [65536 x i8], i32 }
%struct.__va_list_tag = type { i32, i32, ptr, ptr }

@scratch_buffer = dso_local global %struct.ScratchBuf zeroinitializer, align 4
@.str.1 = private unnamed_addr constant [40 x i8] c"Scratch buffer size (%d chars) exceeded\00", align 1

; Function Attrs: nounwind uwtable
define dso_local void @scratch_buffer_printf(ptr noundef %0, ...) #0 {
  %2 = alloca ptr, align 8
  %3 = alloca [1 x %struct.__va_list_tag], align 16
  %4 = alloca i64, align 8
  %5 = alloca i32, align 4
  store ptr %0, ptr %2, align 8
  %6 = getelementptr inbounds [1 x %struct.__va_list_tag], ptr %3, i64 0, i64 0
  call void @llvm.va_start.p0(ptr %6)
  %7 = load i32, ptr getelementptr inbounds (%struct.ScratchBuf, ptr @scratch_buffer, i32 0, i32 1), align 4
  %8 = sub i32 65536, %7
  %9 = zext i32 %8 to i64
  store i64 %9, ptr %4, align 8
  %10 = load i32, ptr getelementptr inbounds (%struct.ScratchBuf, ptr @scratch_buffer, i32 0, i32 1), align 4
  %11 = zext i32 %10 to i64
  %12 = getelementptr inbounds [65536 x i8], ptr @scratch_buffer, i64 0, i64 %11
  %13 = load i64, ptr %4, align 8
  %14 = load ptr, ptr %2, align 8
  %15 = getelementptr inbounds [1 x %struct.__va_list_tag], ptr %3, i64 0, i64 0
  %16 = call i32 @vsnprintf(ptr noundef %12, i64 noundef %13, ptr noundef %14, ptr noundef %15) #8
  store i32 %16, ptr %5, align 4
  %17 = load i32, ptr %5, align 4
  %18 = zext i32 %17 to i64
  %19 = load i64, ptr %4, align 8
  %20 = sub i64 %19, 1
  %21 = icmp ugt i64 %18, %20
  br i1 %21, label %22, label %23

22:                                               ; preds = %1
  call void (ptr, ...) @error_exit(ptr noundef @.str.1, i32 noundef 65535) #9
  unreachable

23:                                               ; preds = %1
  %24 = getelementptr inbounds [1 x %struct.__va_list_tag], ptr %3, i64 0, i64 0
  call void @llvm.va_end.p0(ptr %24)
  %25 = load i32, ptr %5, align 4
  %26 = load i32, ptr getelementptr inbounds (%struct.ScratchBuf, ptr @scratch_buffer, i32 0, i32 1), align 4
  %27 = add i32 %26, %25
  store i32 %27, ptr getelementptr inbounds (%struct.ScratchBuf, ptr @scratch_buffer, i32 0, i32 1), align 4
  ret void
}