; Function Attrs: nounwind uwtable
define dso_local void @scratch_buffer_printf(ptr nocapture noundef readonly %0, ...) local_unnamed_addr #7 {
  %2 = alloca [1 x %struct.__va_list_tag], align 16
  call void @llvm.va_start.p0(ptr nonnull %2)
  %3 = load i32, ptr getelementptr inbounds (%struct.ScratchBuf, ptr @scratch_buffer, i64 0, i32 1), align 4
  %4 = sub i32 65536, %3
  %5 = zext i32 %4 to i64
  %6 = zext i32 %3 to i64
  %7 = getelementptr inbounds [65536 x i8], ptr @scratch_buffer, i64 0, i64 %6
  %8 = call i32 @vsnprintf(ptr noundef nonnull %7, i64 noundef %5, ptr noundef %0, ptr noundef nonnull %2) #21
  %9 = zext i32 %8 to i64
  %10 = add nsw i64 %5, -1
  %11 = icmp ult i64 %10, %9
  br i1 %11, label %12, label %13

12:                                               ; preds = %1
  call void (ptr, ...) @error_exit(ptr noundef nonnull @.str.1, i32 noundef 65535) #22
  unreachable

13:                                               ; preds = %1
  call void @llvm.va_end.p0(ptr nonnull %2)
  %14 = load i32, ptr getelementptr inbounds (%struct.ScratchBuf, ptr @scratch_buffer, i64 0, i32 1), align 4
  %15 = add i32 %14, %8
  store i32 %15, ptr getelementptr inbounds (%struct.ScratchBuf, ptr @scratch_buffer, i64 0, i32 1), align 4
  ret void
}